; Function Attrs: nounwind uwtable
define ptr @l_Lean_resolveNamespaceCore___at_Lean_Elab_OpenDecl_elabOpenDecl___spec__89___rarg___lambda__3(ptr noundef %0, ptr noundef %1, ptr noundef %2, ptr noundef %3, ptr noundef %4, i8 noundef zeroext %5, ptr noundef %6, ptr noundef %7, ptr noundef %8, ptr noundef %9) local_unnamed_addr #0 {
  %11 = ptrtoint ptr %0 to i64
  %12 = and i64 %11, 1
  %.not = icmp eq i64 %12, 0
  br i1 %.not, label %13, label %lean_inc.exit43

13:                                               ; preds = %10
  %.val.i = load i32, ptr %0, align 4, !tbaa !8
  %14 = icmp sgt i32 %.val.i, 0
  br i1 %14, label %15, label %17, !prof !11

15:                                               ; preds = %13
  %16 = add nuw i32 %.val.i, 1
  store i32 %16, ptr %0, align 4, !tbaa !8
  br label %lean_inc.exit43

17:                                               ; preds = %13
  %.not.i = icmp eq i32 %.val.i, 0
  br i1 %.not.i, label %lean_inc.exit43, label %18

18:                                               ; preds = %17
  tail call void @lean_inc_ref_cold(ptr noundef nonnull %0) #6
  br label %lean_inc.exit43

lean_inc.exit43:                                  ; preds = %18, %17, %15, %10
  tail call void @lean_inc_heartbeat() #6
  %19 = tail call noalias ptr @mi_malloc_small(i64 noundef 48) #6
  %20 = icmp eq ptr %19, null
  br i1 %20, label %21, label %lean_alloc_closure.exit

21:                                               ; preds = %lean_inc.exit43
  tail call void @lean_internal_panic_out_of_memory() #7
  unreachable

lean_alloc_closure.exit:                          ; preds = %lean_inc.exit43
  %22 = getelementptr inbounds nuw i8, ptr %19, i64 4
  store i32 1, ptr %19, align 4, !tbaa !8
  store i32 -184549328, ptr %22, align 4
  %23 = getelementptr inbounds nuw i8, ptr %19, i64 8
  store ptr @l_ST_Prim_Ref_get___boxed, ptr %23, align 8, !tbaa !4
  %24 = getelementptr inbounds nuw i8, ptr %19, i64 16
  store i16 4, ptr %24, align 8, !tbaa !12
  %25 = getelementptr inbounds nuw i8, ptr %19, i64 18
  store i16 3, ptr %25, align 2, !tbaa !12
  %26 = getelementptr inbounds nuw i8, ptr %19, i64 24
  store ptr inttoptr (i64 1 to ptr), ptr %26, align 8, !tbaa !4
  %27 = getelementptr inbounds nuw i8, ptr %19, i64 32
  store ptr inttoptr (i64 1 to ptr), ptr %27, align 8, !tbaa !4
  %28 = getelementptr inbounds nuw i8, ptr %19, i64 40
  store ptr %0, ptr %28, align 8, !tbaa !4
  %29 = tail call ptr @lean_apply_2(ptr noundef %1, ptr noundef nonnull inttoptr (i64 1 to ptr), ptr noundef nonnull %19) #6
  %30 = ptrtoint ptr %2 to i64
  %31 = and i64 %30, 1
  %.not58 = icmp eq i64 %31, 0
  br i1 %.not58, label %32, label %lean_inc.exit42

32:                                               ; preds = %lean_alloc_closure.exit
  %.val.i44 = load i32, ptr %2, align 4, !tbaa !8
  %33 = icmp sgt i32 %.val.i44, 0
  br i1 %33, label %34, label %36, !prof !11

34:                                               ; preds = %32
  %35 = add nuw i32 %.val.i44, 1
  store i32 %35, ptr %2, align 4, !tbaa !8
  br label %lean_inc.exit42

36:                                               ; preds = %32
  %.not.i45 = icmp eq i32 %.val.i44, 0
  br i1 %.not.i45, label %lean_inc.exit42, label %37

37:                                               ; preds = %36
  tail call void @lean_inc_ref_cold(ptr noundef nonnull %2) #6
  br label %lean_inc.exit42

lean_inc.exit42:                                  ; preds = %37, %36, %34, %lean_alloc_closure.exit
  tail call void @lean_inc_heartbeat() #6
  %38 = tail call noalias ptr @mi_malloc_small(i64 noundef 32) #6
  %39 = icmp eq ptr %38, null
  br i1 %39, label %40, label %lean_alloc_closure.exit47

40:                                               ; preds = %lean_inc.exit42
  tail call void @lean_internal_panic_out_of_memory() #7
  unreachable

lean_alloc_closure.exit47:                        ; preds = %lean_inc.exit42
  %41 = getelementptr inbounds nuw i8, ptr %38, i64 4
  store i32 1, ptr %38, align 4, !tbaa !8
  store i32 -184549344, ptr %41, align 4
  %42 = getelementptr inbounds nuw i8, ptr %38, i64 8
  store ptr @l_Lean_resolveGlobalName___at_Lean_Elab_OpenDecl_resolveId___spec__3___rarg___lambda__1, ptr %42, align 8, !tbaa !4
  %43 = getelementptr inbounds nuw i8, ptr %38, i64 16
  store i16 2, ptr %43, align 8, !tbaa !12
  %44 = getelementptr inbounds nuw i8, ptr %38, i64 18
  store i16 1, ptr %44, align 2, !tbaa !12
  %45 = getelementptr inbounds nuw i8, ptr %38, i64 24
  store ptr %2, ptr %45, align 8, !tbaa !4
  %46 = ptrtoint ptr %3 to i64
  %47 = and i64 %46, 1
  %.not59 = icmp eq i64 %47, 0
  br i1 %.not59, label %48, label %lean_inc.exit41

48:                                               ; preds = %lean_alloc_closure.exit47
  %.val.i48 = load i32, ptr %3, align 4, !tbaa !8
  %49 = icmp sgt i32 %.val.i48, 0
  br i1 %49, label %50, label %52, !prof !11

50:                                               ; preds = %48
  %51 = add nuw i32 %.val.i48, 1
  store i32 %51, ptr %3, align 4, !tbaa !8
  br label %lean_inc.exit41

52:                                               ; preds = %48
  %.not.i49 = icmp eq i32 %.val.i48, 0
  br i1 %.not.i49, label %lean_inc.exit41, label %53

53:                                               ; preds = %52
  tail call void @lean_inc_ref_cold(ptr noundef nonnull %3) #6
  br label %lean_inc.exit41

lean_inc.exit41:                                  ; preds = %53, %52, %50, %lean_alloc_closure.exit47
  %54 = ptrtoint ptr %29 to i64
  %55 = and i64 %54, 1
  %.not60 = icmp eq i64 %55, 0
  br i1 %.not60, label %56, label %lean_inc.exit40

56:                                               ; preds = %lean_inc.exit41
  %.val.i51 = load i32, ptr %29, align 4, !tbaa !8
  %57 = icmp sgt i32 %.val.i51, 0
  br i1 %57, label %58, label %60, !prof !11

58:                                               ; preds = %56
  %59 = add nuw i32 %.val.i51, 1
  store i32 %59, ptr %29, align 4, !tbaa !8
  br label %lean_inc.exit40

60:                                               ; preds = %56
  %.not.i52 = icmp eq i32 %.val.i51, 0
  br i1 %.not.i52, label %lean_inc.exit40, label %61

61:                                               ; preds = %60
  tail call void @lean_inc_ref_cold(ptr noundef nonnull %29) #6
  br label %lean_inc.exit40

lean_inc.exit40:                                  ; preds = %61, %60, %58, %lean_inc.exit41
  %62 = tail call ptr @lean_apply_4(ptr noundef %3, ptr noundef nonnull inttoptr (i64 1 to ptr), ptr noundef nonnull inttoptr (i64 1 to ptr), ptr noundef %29, ptr noundef nonnull %38) #6
  br i1 %.not59, label %63, label %lean_inc.exit

63:                                               ; preds = %lean_inc.exit40
  %.val.i54 = load i32, ptr %3, align 4, !tbaa !8
  %64 = icmp sgt i32 %.val.i54, 0
  br i1 %64, label %65, label %67, !prof !11

65:                                               ; preds = %63
  %66 = add nuw i32 %.val.i54, 1
  store i32 %66, ptr %3, align 4, !tbaa !8
  br label %lean_inc.exit

67:                                               ; preds = %63
  %.not.i55 = icmp eq i32 %.val.i54, 0
  br i1 %.not.i55, label %lean_inc.exit, label %68

68:                                               ; preds = %67
  tail call void @lean_inc_ref_cold(ptr noundef nonnull %3) #6
  br label %lean_inc.exit

lean_inc.exit:                                    ; preds = %68, %67, %65, %lean_inc.exit40
  tail call void @lean_inc_heartbeat() #6
  %69 = tail call noalias ptr @mi_malloc_small(i64 noundef 104) #6
  %70 = icmp eq ptr %69, null
  br i1 %70, label %71, label %lean_alloc_closure.exit57

71:                                               ; preds = %lean_inc.exit
  tail call void @lean_internal_panic_out_of_memory() #7
  unreachable

lean_alloc_closure.exit57:                        ; preds = %lean_inc.exit
  %72 = zext i8 %5 to i64
  %73 = shl nuw nsw i64 %72, 1
  %74 = or disjoint i64 %73, 1
  %75 = inttoptr i64 %74 to ptr
  %76 = getelementptr inbounds nuw i8, ptr %69, i64 4
  store i32 1, ptr %69, align 4, !tbaa !8
  store i32 -184549272, ptr %76, align 4
  %77 = getelementptr inbounds nuw i8, ptr %69, i64 8
  store ptr @l_Lean_resolveNamespaceCore___at_Lean_Elab_OpenDecl_elabOpenDecl___spec__89___rarg___lambda__2___boxed, ptr %77, align 8, !tbaa !4
  %78 = getelementptr inbounds nuw i8, ptr %69, i64 16
  store i16 11, ptr %78, align 8, !tbaa !12
  %79 = getelementptr inbounds nuw i8, ptr %69, i64 18
  store i16 10, ptr %79, align 2, !tbaa !12
  %80 = getelementptr inbounds nuw i8, ptr %69, i64 24
  store ptr %2, ptr %80, align 8, !tbaa !4
  %81 = getelementptr inbounds nuw i8, ptr %69, i64 32
  store ptr %3, ptr %81, align 8, !tbaa !4
  %82 = getelementptr inbounds nuw i8, ptr %69, i64 40
  store ptr %29, ptr %82, align 8, !tbaa !4
  %83 = getelementptr inbounds nuw i8, ptr %69, i64 48
  store ptr %9, ptr %83, align 8, !tbaa !4
  %84 = getelementptr inbounds nuw i8, ptr %69, i64 56
  store ptr %4, ptr %84, align 8, !tbaa !4
  %85 = getelementptr inbounds nuw i8, ptr %69, i64 64
  store ptr %75, ptr %85, align 8, !tbaa !4
  %86 = getelementptr inbounds nuw i8, ptr %69, i64 72
  store ptr %0, ptr %86, align 8, !tbaa !4
  %87 = getelementptr inbounds nuw i8, ptr %69, i64 80
  store ptr %6, ptr %87, align 8, !tbaa !4
  %88 = getelementptr inbounds nuw i8, ptr %69, i64 88
  store ptr %7, ptr %88, align 8, !tbaa !4
  %89 = getelementptr inbounds nuw i8, ptr %69, i64 96
  store ptr %8, ptr %89, align 8, !tbaa !4
  %90 = tail call ptr @lean_apply_4(ptr noundef %3, ptr noundef nonnull inttoptr (i64 1 to ptr), ptr noundef nonnull inttoptr (i64 1 to ptr), ptr noundef %62, ptr noundef nonnull %69) #6
  ret ptr %90
}